target datalayout = "e-m:e-p270:32:32-p271:32:32-p272:64:64-i64:64-i128:128-f80:128-n8:16:32:64-S128"
target triple = "x86_64-pc-linux-gnu"

%struct.H5FS_create_t = type { i32, i32, i32, i32, i64 }
%struct.H5HF_hdr_t = type { %struct.H5C_cache_entry_t, i32, i32, i8, i8, i8, i8, %struct.H5HF_dtable_t, i64, i64, i32, i64, i64, %struct.H5O_pline_t, i64, i32, i64, i64, i64, i64, i64, i64, i64, i64, i64, i64, i64, i32, ptr, i64, i8, i8, i8, ptr, i32, ptr, %struct.H5HF_block_iter_t, ptr, i64, i8, i8, i64, i8, i8, i8, i8 }
%struct.H5C_cache_entry_t = type { ptr, i64, i64, ptr, i8, ptr, i8, i8, i8, i8, i32, i8, i8, i8, i8, i8, i32, ptr, i32, i32, i32, i32, i32, i8, i8, ptr, ptr, ptr, ptr, ptr, ptr, i8, i32, i8, i64, ptr, i64, i64, i32, i8, i32, i32, i8, ptr, ptr, ptr }
%struct.H5HF_dtable_t = type { %struct.H5HF_dtable_cparam_t, i64, i32, i32, i32, i32, i32, i32, i32, i64, ptr, ptr, ptr, ptr }
%struct.H5HF_dtable_cparam_t = type { i32, i64, i64, i32, i32 }
%struct.H5O_pline_t = type { %struct.H5O_shared_t, i32, i64, i64, ptr }
%struct.H5O_shared_t = type { i32, ptr, i32, %union.anon }
%union.anon = type { %struct.H5O_mesg_loc_t }
%struct.H5O_mesg_loc_t = type { i32, i64 }
%struct.H5HF_block_iter_t = type { i8, ptr }

@__const.H5HF__space_start.classes = private unnamed_addr constant [4 x ptr] [ptr @H5HF_FSPACE_SECT_CLS_SINGLE, ptr @H5HF_FSPACE_SECT_CLS_FIRST_ROW, ptr @H5HF_FSPACE_SECT_CLS_NORMAL_ROW, ptr @H5HF_FSPACE_SECT_CLS_INDIRECT], align 16
@.str = private unnamed_addr constant [103 x i8] c"generated/home/dtcxzyw/WorkSpace/Projects/compilers/llvm-opt-benchmark/bench/hdf5/hdf5/src/H5HFspace.c\00", align 1
@__func__.H5HF__space_start = private unnamed_addr constant [18 x i8] c"H5HF__space_start\00", align 1
@H5E_HEAP_g = external global i64, align 8
@H5E_CANTINIT_g = external global i64, align 8
@.str.1 = private unnamed_addr constant [33 x i8] c"can't initialize free space info\00", align 1
@.str.2 = private unnamed_addr constant [33 x i8] c"can't initialize heap free space\00", align 1
@__func__.H5HF__space_find = private unnamed_addr constant [17 x i8] c"H5HF__space_find\00", align 1
@H5E_CANTALLOC_g = external global i64, align 8
@.str.4 = private unnamed_addr constant [40 x i8] c"can't locate free space in fractal heap\00", align 1

; Function Attrs: nounwind uwtable
define i32 @H5HF__space_start(ptr noundef %0, i1 noundef zeroext %1) #0 {
  %3 = alloca ptr, align 8
  %4 = alloca i8, align 1
  %5 = alloca [4 x ptr], align 16
  %6 = alloca i32, align 4
  %7 = alloca i8, align 1
  %8 = alloca %struct.H5FS_create_t, align 8
  store ptr %0, ptr %3, align 8
  %9 = zext i1 %1 to i8
  store i8 %9, ptr %4, align 1
  call void @llvm.memcpy.p0.p0.i64(ptr align 16 %5, ptr align 16 @__const.H5HF__space_start.classes, i64 32, i1 false)
  store i32 0, ptr %6, align 4
  store i8 0, ptr %7, align 1
  %10 = load ptr, ptr %3, align 8
  %11 = getelementptr inbounds %struct.H5HF_hdr_t, ptr %10, i32 0, i32 9
  %12 = load i64, ptr %11, align 8
  %13 = icmp ne i64 %12, -1
  br i1 %13, label %14, label %43

14:                                               ; preds = %2
  %15 = load ptr, ptr %3, align 8
  %16 = getelementptr inbounds %struct.H5HF_hdr_t, ptr %15, i32 0, i32 28
  %17 = load ptr, ptr %16, align 8
  %18 = load ptr, ptr %3, align 8
  %19 = getelementptr inbounds %struct.H5HF_hdr_t, ptr %18, i32 0, i32 9
  %20 = load i64, ptr %19, align 8
  %21 = getelementptr inbounds [4 x ptr], ptr %5, i64 0, i64 0
  %22 = load ptr, ptr %3, align 8
  %23 = call ptr @H5FS_open(ptr noundef %17, i64 noundef %20, i16 noundef zeroext 4, ptr noundef %21, ptr noundef %22, i64 noundef 1, i64 noundef 1)
  %24 = load ptr, ptr %3, align 8
  %25 = getelementptr inbounds %struct.H5HF_hdr_t, ptr %24, i32 0, i32 35
  store ptr %23, ptr %25, align 8
  %26 = icmp eq ptr null, %23
  br i1 %26, label %27, label %42

27:                                               ; preds = %14
  br label %28

28:                                               ; preds = %27
  br label %29

29:                                               ; preds = %28
  br label %30

30:                                               ; preds = %29
  %31 = load i64, ptr @H5E_HEAP_g, align 8
  %32 = load i64, ptr @H5E_CANTINIT_g, align 8
  %33 = call i32 (ptr, ptr, i32, i64, i64, ptr, ...) @H5E_printf_stack(ptr noundef @.str, ptr noundef @__func__.H5HF__space_start, i32 noundef 101, i64 noundef %31, i64 noundef %32, ptr noundef @.str.1)
  br label %34

34:                                               ; preds = %30
  store i8 1, ptr %7, align 1
  %35 = load i8, ptr %7, align 1
  %36 = trunc i8 %35 to i1
  %37 = zext i1 %36 to i8
  store i8 %37, ptr %7, align 1
  br label %38

38:                                               ; preds = %34
  br label %39

39:                                               ; preds = %38
  store i32 -1, ptr %6, align 4
  br label %91

40:                                               ; No predecessors!
  br label %41

41:                                               ; preds = %40
  br label %42

42:                                               ; preds = %41, %14
  br label %90

43:                                               ; preds = %2
  %44 = load i8, ptr %4, align 1
  %45 = trunc i8 %44 to i1
  br i1 %45, label %46, label %89

46:                                               ; preds = %43
  %47 = getelementptr inbounds %struct.H5FS_create_t, ptr %8, i32 0, i32 0
  store i32 0, ptr %47, align 8
  %48 = getelementptr inbounds %struct.H5FS_create_t, ptr %8, i32 0, i32 1
  store i32 80, ptr %48, align 4
  %49 = getelementptr inbounds %struct.H5FS_create_t, ptr %8, i32 0, i32 2
  store i32 120, ptr %49, align 8
  %50 = load ptr, ptr %3, align 8
  %51 = getelementptr inbounds %struct.H5HF_hdr_t, ptr %50, i32 0, i32 7
  %52 = getelementptr inbounds %struct.H5HF_dtable_t, ptr %51, i32 0, i32 0
  %53 = getelementptr inbounds %struct.H5HF_dtable_cparam_t, ptr %52, i32 0, i32 2
  %54 = load i64, ptr %53, align 8
  %55 = getelementptr inbounds %struct.H5FS_create_t, ptr %8, i32 0, i32 4
  store i64 %54, ptr %55, align 8
  %56 = load ptr, ptr %3, align 8
  %57 = getelementptr inbounds %struct.H5HF_hdr_t, ptr %56, i32 0, i32 7
  %58 = getelementptr inbounds %struct.H5HF_dtable_t, ptr %57, i32 0, i32 0
  %59 = getelementptr inbounds %struct.H5HF_dtable_cparam_t, ptr %58, i32 0, i32 3
  %60 = load i32, ptr %59, align 8
  %61 = getelementptr inbounds %struct.H5FS_create_t, ptr %8, i32 0, i32 3
  store i32 %60, ptr %61, align 4
  %62 = load ptr, ptr %3, align 8
  %63 = getelementptr inbounds %struct.H5HF_hdr_t, ptr %62, i32 0, i32 28
  %64 = load ptr, ptr %63, align 8
  %65 = load ptr, ptr %3, align 8
  %66 = getelementptr inbounds %struct.H5HF_hdr_t, ptr %65, i32 0, i32 9
  %67 = getelementptr inbounds [4 x ptr], ptr %5, i64 0, i64 0
  %68 = load ptr, ptr %3, align 8
  %69 = call ptr @H5FS_create(ptr noundef %64, ptr noundef %66, ptr noundef %8, i16 noundef zeroext 4, ptr noundef %67, ptr noundef %68, i64 noundef 1, i64 noundef 1)
  %70 = load ptr, ptr %3, align 8
  %71 = getelementptr inbounds %struct.H5HF_hdr_t, ptr %70, i32 0, i32 35
  store ptr %69, ptr %71, align 8
  %72 = icmp eq ptr null, %69
  br i1 %72, label %73, label %88

73:                                               ; preds = %46
  br label %74

74:                                               ; preds = %73
  br label %75

75:                                               ; preds = %74
  br label %76

76:                                               ; preds = %75
  %77 = load i64, ptr @H5E_HEAP_g, align 8
  %78 = load i64, ptr @H5E_CANTINIT_g, align 8
  %79 = call i32 (ptr, ptr, i32, i64, i64, ptr, ...) @H5E_printf_stack(ptr noundef @.str, ptr noundef @__func__.H5HF__space_start, i32 noundef 119, i64 noundef %77, i64 noundef %78, ptr noundef @.str.1)
  br label %80

80:                                               ; preds = %76
  store i8 1, ptr %7, align 1
  %81 = load i8, ptr %7, align 1
  %82 = trunc i8 %81 to i1
  %83 = zext i1 %82 to i8
  store i8 %83, ptr %7, align 1
  br label %84

84:                                               ; preds = %80
  br label %85

85:                                               ; preds = %84
  store i32 -1, ptr %6, align 4
  br label %91

86:                                               ; No predecessors!
  br label %87

87:                                               ; preds = %86
  br label %88

88:                                               ; preds = %87, %46
  br label %89

89:                                               ; preds = %88, %43
  br label %90

90:                                               ; preds = %89, %42
  br label %91

91:                                               ; preds = %90, %85, %39
  %92 = load i32, ptr %6, align 4
  ret i32 %92
}

; Function Attrs: nounwind uwtable
define i32 @H5HF__space_find(ptr noundef %0, i64 noundef %1, ptr noundef %2) #0 {
  %4 = alloca ptr, align 8
  %5 = alloca i64, align 8
  %6 = alloca ptr, align 8
  %7 = alloca i32, align 4
  %8 = alloca i32, align 4
  %9 = alloca i8, align 1
  store ptr %0, ptr %4, align 8
  store i64 %1, ptr %5, align 8
  store ptr %2, ptr %6, align 8
  store i32 0, ptr %7, align 4
  store i32 -1, ptr %8, align 4
  store i8 0, ptr %9, align 1
  %10 = load ptr, ptr %4, align 8
  %11 = getelementptr inbounds %struct.H5HF_hdr_t, ptr %10, i32 0, i32 35
  %12 = load ptr, ptr %11, align 8
  %13 = icmp ne ptr %12, null
  br i1 %13, label %34, label %14

14:                                               ; preds = %3
  %15 = load ptr, ptr %4, align 8
  %16 = call i32 @H5HF__space_start(ptr noundef %15, i1 noundef zeroext false)
  %17 = icmp slt i32 %16, 0
  br i1 %17, label %18, label %33

18:                                               ; preds = %14
  br label %19

19:                                               ; preds = %18
  br label %20

20:                                               ; preds = %19
  br label %21

21:                                               ; preds = %20
  %22 = load i64, ptr @H5E_HEAP_g, align 8
  %23 = load i64, ptr @H5E_CANTINIT_g, align 8
  %24 = call i32 (ptr, ptr, i32, i64, i64, ptr, ...) @H5E_printf_stack(ptr noundef @.str, ptr noundef @__func__.H5HF__space_find, i32 noundef 197, i64 noundef %22, i64 noundef %23, ptr noundef @.str.2)
  br label %25

25:                                               ; preds = %21
  store i8 1, ptr %9, align 1
  %26 = load i8, ptr %9, align 1
  %27 = trunc i8 %26 to i1
  %28 = zext i1 %27 to i8
  store i8 %28, ptr %9, align 1
  br label %29

29:                                               ; preds = %25
  br label %30

30:                                               ; preds = %29
  store i32 -1, ptr %8, align 4
  br label %68

31:                                               ; No predecessors!
  br label %32

32:                                               ; preds = %31
  br label %33

33:                                               ; preds = %32, %14
  br label %34

34:                                               ; preds = %33, %3
  %35 = load ptr, ptr %4, align 8
  %36 = getelementptr inbounds %struct.H5HF_hdr_t, ptr %35, i32 0, i32 35
  %37 = load ptr, ptr %36, align 8
  %38 = icmp ne ptr %37, null
  br i1 %38, label %39, label %66

39:                                               ; preds = %34
  %40 = load ptr, ptr %4, align 8
  %41 = getelementptr inbounds %struct.H5HF_hdr_t, ptr %40, i32 0, i32 28
  %42 = load ptr, ptr %41, align 8
  %43 = load ptr, ptr %4, align 8
  %44 = getelementptr inbounds %struct.H5HF_hdr_t, ptr %43, i32 0, i32 35
  %45 = load ptr, ptr %44, align 8
  %46 = load i64, ptr %5, align 8
  %47 = load ptr, ptr %6, align 8
  %48 = call i32 @H5FS_sect_find(ptr noundef %42, ptr noundef %45, i64 noundef %46, ptr noundef %47)
  store i32 %48, ptr %7, align 4
  %49 = icmp slt i32 %48, 0
  br i1 %49, label %50, label %65

50:                                               ; preds = %39
  br label %51

51:                                               ; preds = %50
  br label %52

52:                                               ; preds = %51
  br label %53

53:                                               ; preds = %52
  %54 = load i64, ptr @H5E_HEAP_g, align 8
  %55 = load i64, ptr @H5E_CANTALLOC_g, align 8
  %56 = call i32 (ptr, ptr, i32, i64, i64, ptr, ...) @H5E_printf_stack(ptr noundef @.str, ptr noundef @__func__.H5HF__space_find, i32 noundef 202, i64 noundef %54, i64 noundef %55, ptr noundef @.str.4)
  br label %57

57:                                               ; preds = %53
  store i8 1, ptr %9, align 1
  %58 = load i8, ptr %9, align 1
  %59 = trunc i8 %58 to i1
  %60 = zext i1 %59 to i8
  store i8 %60, ptr %9, align 1
  br label %61

61:                                               ; preds = %57
  br label %62

62:                                               ; preds = %61
  store i32 -1, ptr %8, align 4
  br label %68

63:                                               ; No predecessors!
  br label %64

64:                                               ; preds = %63
  br label %65

65:                                               ; preds = %64, %39
  br label %66

66:                                               ; preds = %65, %34
  %67 = load i32, ptr %7, align 4
  store i32 %67, ptr %8, align 4
  br label %68

68:                                               ; preds = %66, %62, %30
  %69 = load i32, ptr %8, align 4
  ret i32 %69
}