; Function Attrs: nounwind uwtable
define range(i32 -1, -2147483648) i32 @H5HF__space_find(ptr noundef %0, i64 noundef %1, ptr noundef %2) local_unnamed_addr #0 {
  %4 = alloca [4 x ptr], align 16
  %5 = getelementptr inbounds i8, ptr %0, i64 640
  %6 = load ptr, ptr %5, align 8
  %.not = icmp eq ptr %6, null
  br i1 %.not, label %7, label %.thread

7:                                                ; preds = %3
  call void @llvm.lifetime.start.p0(i64 32, ptr nonnull %4)
  call void @llvm.memcpy.p0.p0.i64(ptr noundef nonnull align 16 dereferenceable(32) %4, ptr noundef nonnull align 16 dereferenceable(32) @__const.H5HF__space_start.classes, i64 32, i1 false)
  %8 = getelementptr inbounds i8, ptr %0, i64 384
  %9 = load i64, ptr %8, align 8
  %.not.i = icmp eq i64 %9, -1
  br i1 %.not.i, label %22, label %10

10:                                               ; preds = %7
  %11 = getelementptr inbounds i8, ptr %0, i64 600
  %12 = load ptr, ptr %11, align 8
  %13 = call ptr @H5FS_open(ptr noundef %12, i64 noundef %9, i16 noundef zeroext 4, ptr noundef nonnull %4, ptr noundef nonnull %0, i64 noundef 1, i64 noundef 1) #4
  store ptr %13, ptr %5, align 8
  %14 = icmp eq ptr %13, null
  br i1 %14, label %15, label %.thread16

.thread16:                                        ; preds = %10
  call void @llvm.lifetime.end.p0(i64 32, ptr nonnull %4)
  br label %.thread

15:                                               ; preds = %10
  %16 = load i64, ptr @H5E_HEAP_g, align 8
  %17 = load i64, ptr @H5E_CANTINIT_g, align 8
  %18 = call i32 (ptr, ptr, i32, i64, i64, ptr, ...) @H5E_printf_stack(ptr noundef nonnull @.str, ptr noundef nonnull @__func__.H5HF__space_start, i32 noundef 101, i64 noundef %16, i64 noundef %17, ptr noundef nonnull @.str.1) #4
  call void @llvm.lifetime.end.p0(i64 32, ptr nonnull %4)
  %19 = load i64, ptr @H5E_HEAP_g, align 8
  %20 = load i64, ptr @H5E_CANTINIT_g, align 8
  %21 = call i32 (ptr, ptr, i32, i64, i64, ptr, ...) @H5E_printf_stack(ptr noundef nonnull @.str, ptr noundef nonnull @__func__.H5HF__space_find, i32 noundef 197, i64 noundef %19, i64 noundef %20, ptr noundef nonnull @.str.2) #4
  br label %32

22:                                               ; preds = %7
  call void @llvm.lifetime.end.p0(i64 32, ptr nonnull %4)
  br label %32

.thread:                                          ; preds = %3, %.thread16
  %23 = phi ptr [ %13, %.thread16 ], [ %6, %3 ]
  %24 = getelementptr inbounds i8, ptr %0, i64 600
  %25 = load ptr, ptr %24, align 8
  %26 = call i32 @H5FS_sect_find(ptr noundef %25, ptr noundef nonnull %23, i64 noundef %1, ptr noundef %2) #4
  %27 = icmp slt i32 %26, 0
  br i1 %27, label %28, label %32

28:                                               ; preds = %.thread
  %29 = load i64, ptr @H5E_HEAP_g, align 8
  %30 = load i64, ptr @H5E_CANTALLOC_g, align 8
  %31 = call i32 (ptr, ptr, i32, i64, i64, ptr, ...) @H5E_printf_stack(ptr noundef nonnull @.str, ptr noundef nonnull @__func__.H5HF__space_find, i32 noundef 202, i64 noundef %29, i64 noundef %30, ptr noundef nonnull @.str.4) #4
  br label %32

32:                                               ; preds = %22, %.thread, %28, %15
  %.0 = phi i32 [ -1, %28 ], [ -1, %15 ], [ %26, %.thread ], [ 0, %22 ]
  ret i32 %.0
}